TN:
SF:/u/sw/toolchains/gcc-glibc/11.2.0/prefix/include/c++/11.2.0/bits/alloc_traits.h
FN:459,_ZNSt16allocator_traitsISaI12Struct1Pack4EE8allocateERS1_m
FNDA:1,_ZNSt16allocator_traitsISaI12Struct1Pack4EE8allocateERS1_m
FN:459,_ZNSt16allocator_traitsISaI12Struct1Pack2EE8allocateERS1_m
FNDA:1,_ZNSt16allocator_traitsISaI12Struct1Pack2EE8allocateERS1_m
FN:459,_ZNSt16allocator_traitsISaI12Struct1Pack1EE8allocateERS1_m
FNDA:1,_ZNSt16allocator_traitsISaI12Struct1Pack1EE8allocateERS1_m
FN:459,_ZNSt16allocator_traitsISaI7Struct1EE8allocateERS1_m
FNDA:1,_ZNSt16allocator_traitsISaI7Struct1EE8allocateERS1_m
FN:459,_ZNSt16allocator_traitsISaI7Struct2EE8allocateERS1_m
FNDA:1,_ZNSt16allocator_traitsISaI7Struct2EE8allocateERS1_m
FN:491,_ZNSt16allocator_traitsISaI7Struct2EE10deallocateERS1_PS0_m
FNDA:1,_ZNSt16allocator_traitsISaI7Struct2EE10deallocateERS1_PS0_m
FN:491,_ZNSt16allocator_traitsISaI12Struct1Pack4EE10deallocateERS1_PS0_m
FNDA:1,_ZNSt16allocator_traitsISaI12Struct1Pack4EE10deallocateERS1_PS0_m
FN:491,_ZNSt16allocator_traitsISaI7Struct1EE10deallocateERS1_PS0_m
FNDA:1,_ZNSt16allocator_traitsISaI7Struct1EE10deallocateERS1_PS0_m
FN:491,_ZNSt16allocator_traitsISaI12Struct1Pack2EE10deallocateERS1_PS0_m
FNDA:1,_ZNSt16allocator_traitsISaI12Struct1Pack2EE10deallocateERS1_PS0_m
FN:491,_ZNSt16allocator_traitsISaI12Struct1Pack1EE10deallocateERS1_PS0_m
FNDA:1,_ZNSt16allocator_traitsISaI12Struct1Pack1EE10deallocateERS1_PS0_m
FN:543,_ZNSt16allocator_traitsISaI12Struct1Pack2EE8max_sizeERKS1_
FNDA:1,_ZNSt16allocator_traitsISaI12Struct1Pack2EE8max_sizeERKS1_
FN:543,_ZNSt16allocator_traitsISaI7Struct1EE8max_sizeERKS1_
FNDA:1,_ZNSt16allocator_traitsISaI7Struct1EE8max_sizeERKS1_
FN:543,_ZNSt16allocator_traitsISaI12Struct1Pack1EE8max_sizeERKS1_
FNDA:1,_ZNSt16allocator_traitsISaI12Struct1Pack1EE8max_sizeERKS1_
FN:543,_ZNSt16allocator_traitsISaI12Struct1Pack4EE8max_sizeERKS1_
FNDA:1,_ZNSt16allocator_traitsISaI12Struct1Pack4EE8max_sizeERKS1_
FN:543,_ZNSt16allocator_traitsISaI7Struct2EE8max_sizeERKS1_
FNDA:1,_ZNSt16allocator_traitsISaI7Struct2EE8max_sizeERKS1_
FN:743,_ZSt8_DestroyIP7Struct2S0_EvT_S2_RSaIT0_E
FNDA:1,_ZSt8_DestroyIP7Struct2S0_EvT_S2_RSaIT0_E
FN:743,_ZSt8_DestroyIP12Struct1Pack4S0_EvT_S2_RSaIT0_E
FNDA:1,_ZSt8_DestroyIP12Struct1Pack4S0_EvT_S2_RSaIT0_E
FN:743,_ZSt8_DestroyIP12Struct1Pack2S0_EvT_S2_RSaIT0_E
FNDA:1,_ZSt8_DestroyIP12Struct1Pack2S0_EvT_S2_RSaIT0_E
FN:743,_ZSt8_DestroyIP12Struct1Pack1S0_EvT_S2_RSaIT0_E
FNDA:1,_ZSt8_DestroyIP12Struct1Pack1S0_EvT_S2_RSaIT0_E
FN:743,_ZSt8_DestroyIP7Struct1S0_EvT_S2_RSaIT0_E
FNDA:1,_ZSt8_DestroyIP7Struct1S0_EvT_S2_RSaIT0_E
FNF:20
FNH:20
DA:459,1
DA:460,1
DA:459,1
DA:460,1
DA:459,1
DA:460,1
DA:459,1
DA:460,1
DA:459,1
DA:460,1
DA:491,1
DA:492,1
DA:491,1
DA:492,1
DA:491,1
DA:492,1
DA:491,1
DA:492,1
DA:491,1
DA:492,1
DA:543,1
DA:546,1
DA:543,1
DA:546,1
DA:543,1
DA:546,1
DA:543,1
DA:546,1
DA:543,1
DA:546,1
DA:743,1
DA:746,1
DA:747,1
DA:743,1
DA:746,1
DA:747,1
DA:743,1
DA:746,1
DA:747,1
DA:743,1
DA:746,1
DA:747,1
DA:743,1
DA:746,1
DA:747,1
LF:45
LH:45
end_of_record
SF:/u/sw/toolchains/gcc-glibc/11.2.0/prefix/include/c++/11.2.0/bits/basic_string.h
FN:533,_ZNSt7__cxx1112basic_stringIcSt11char_traitsIcESaIcEEC2IS3_EEPKcRKS3_
FNDA:5,_ZNSt7__cxx1112basic_stringIcSt11char_traitsIcESaIcEEC2IS3_EEPKcRKS3_
FNF:1
FNH:1
DA:533,5
DA:534,5
DA:536,5
DA:539,5
DA:540,5
LF:5
LH:5
end_of_record
SF:/u/sw/toolchains/gcc-glibc/11.2.0/prefix/include/c++/11.2.0/bits/stl_iterator_base_types.h
FN:238,_ZSt19__iterator_categoryIP7Struct2ENSt15iterator_traitsIT_E17iterator_categoryERKS3_
FNDA:1,_ZSt19__iterator_categoryIP7Struct2ENSt15iterator_traitsIT_E17iterator_categoryERKS3_
FN:238,_ZSt19__iterator_categoryIP12Struct1Pack4ENSt15iterator_traitsIT_E17iterator_categoryERKS3_
FNDA:1,_ZSt19__iterator_categoryIP12Struct1Pack4ENSt15iterator_traitsIT_E17iterator_categoryERKS3_
FN:238,_ZSt19__iterator_categoryIP12Struct1Pack2ENSt15iterator_traitsIT_E17iterator_categoryERKS3_
FNDA:1,_ZSt19__iterator_categoryIP12Struct1Pack2ENSt15iterator_traitsIT_E17iterator_categoryERKS3_
FN:238,_ZSt19__iterator_categoryIP12Struct1Pack1ENSt15iterator_traitsIT_E17iterator_categoryERKS3_
FNDA:1,_ZSt19__iterator_categoryIP12Struct1Pack1ENSt15iterator_traitsIT_E17iterator_categoryERKS3_
FN:238,_ZSt19__iterator_categoryIP7Struct1ENSt15iterator_traitsIT_E17iterator_categoryERKS3_
FNDA:1,_ZSt19__iterator_categoryIP7Struct1ENSt15iterator_traitsIT_E17iterator_categoryERKS3_
FN:238,_ZSt19__iterator_categoryIPKcENSt15iterator_traitsIT_E17iterator_categoryERKS3_
FNDA:5,_ZSt19__iterator_categoryIPKcENSt15iterator_traitsIT_E17iterator_categoryERKS3_
FNF:6
FNH:6
DA:238,1
DA:239,1
DA:238,1
DA:239,1
DA:238,1
DA:239,1
DA:238,1
DA:239,1
DA:238,1
DA:239,1
DA:238,5
DA:239,5
LF:12
LH:12
end_of_record
SF:/u/sw/toolchains/gcc-glibc/11.2.0/prefix/include/c++/11.2.0/bits/allocator.h
FN:168,_ZNSaI7Struct2EC2Ev
FNDA:1,_ZNSaI7Struct2EC2Ev
FN:168,_ZNSaI12Struct1Pack4EC2Ev
FNDA:1,_ZNSaI12Struct1Pack4EC2Ev
FN:168,_ZNSaI12Struct1Pack2EC2Ev
FNDA:1,_ZNSaI12Struct1Pack2EC2Ev
FN:168,_ZNSaI12Struct1Pack1EC2Ev
FNDA:1,_ZNSaI12Struct1Pack1EC2Ev
FN:168,_ZNSaI7Struct1EC2Ev
FNDA:1,_ZNSaI7Struct1EC2Ev
FN:171,_ZNSaI7Struct2EC2ERKS0_
FNDA:2,_ZNSaI7Struct2EC2ERKS0_
FN:171,_ZNSaI12Struct1Pack4EC2ERKS0_
FNDA:2,_ZNSaI12Struct1Pack4EC2ERKS0_
FN:171,_ZNSaI12Struct1Pack2EC2ERKS0_
FNDA:2,_ZNSaI12Struct1Pack2EC2ERKS0_
FN:171,_ZNSaI12Struct1Pack1EC2ERKS0_
FNDA:2,_ZNSaI12Struct1Pack1EC2ERKS0_
FN:171,_ZNSaI7Struct1EC2ERKS0_
FNDA:2,_ZNSaI7Struct1EC2ERKS0_
FN:186,_ZNSaI7Struct2ED2Ev
FNDA:3,_ZNSaI7Struct2ED2Ev
FN:186,_ZNSaI12Struct1Pack4ED2Ev
FNDA:3,_ZNSaI12Struct1Pack4ED2Ev
FN:186,_ZNSaI12Struct1Pack2ED2Ev
FNDA:3,_ZNSaI12Struct1Pack2ED2Ev
FN:186,_ZNSaI12Struct1Pack1ED2Ev
FNDA:3,_ZNSaI12Struct1Pack1ED2Ev
FN:186,_ZNSaI7Struct1ED2Ev
FNDA:3,_ZNSaI7Struct1ED2Ev
FNF:15
FNH:15
DA:168,1
DA:168,1
DA:168,1
DA:168,1
DA:168,1
DA:171,2
DA:172,2
DA:171,2
DA:172,2
DA:171,2
DA:172,2
DA:171,2
DA:172,2
DA:171,2
DA:172,2
DA:186,3
DA:186,3
DA:186,3
DA:186,3
DA:186,3
LF:20
LH:20
end_of_record
SF:/u/sw/toolchains/gcc-glibc/11.2.0/prefix/include/c++/11.2.0/bits/uniform_int_dist.h
FN:93,_ZNSt24uniform_int_distributionIiE10param_typeC2Eii
FNDA:5,_ZNSt24uniform_int_distributionIiE10param_typeC2Eii
FN:93,_ZNSt24uniform_int_distributionIcE10param_typeC2Ecc
FNDA:5,_ZNSt24uniform_int_distributionIcE10param_typeC2Ecc
FN:93,_ZNSt24uniform_int_distributionIsE10param_typeC2Ess
FNDA:5,_ZNSt24uniform_int_distributionIsE10param_typeC2Ess
FN:101,_ZNKSt24uniform_int_distributionIsE10param_type1aEv
FNDA:1000000000,_ZNKSt24uniform_int_distributionIsE10param_type1aEv
FN:101,_ZNKSt24uniform_int_distributionIcE10param_type1aEv
FNDA:1000000000,_ZNKSt24uniform_int_distributionIcE10param_type1aEv
FN:101,_ZNKSt24uniform_int_distributionIiE10param_type1aEv
FNDA:1000000000,_ZNKSt24uniform_int_distributionIiE10param_type1aEv
FN:105,_ZNKSt24uniform_int_distributionIsE10param_type1bEv
FNDA:500000000,_ZNKSt24uniform_int_distributionIsE10param_type1bEv
FN:105,_ZNKSt24uniform_int_distributionIiE10param_type1bEv
FNDA:500000000,_ZNKSt24uniform_int_distributionIiE10param_type1bEv
FN:105,_ZNKSt24uniform_int_distributionIcE10param_type1bEv
FNDA:500000000,_ZNKSt24uniform_int_distributionIcE10param_type1bEv
FN:131,_ZNSt24uniform_int_distributionIsEC2Ess
FNDA:5,_ZNSt24uniform_int_distributionIsEC2Ess
FN:131,_ZNSt24uniform_int_distributionIcEC2Ecc
FNDA:5,_ZNSt24uniform_int_distributionIcEC2Ecc
FN:131,_ZNSt24uniform_int_distributionIiEC2Eii
FNDA:5,_ZNSt24uniform_int_distributionIiEC2Eii
FN:192,_ZNSt24uniform_int_distributionIsEclISt26linear_congruential_engineImLm16807ELm0ELm2147483647EEEEsRT_
FNDA:500000000,_ZNSt24uniform_int_distributionIsEclISt26linear_congruential_engineImLm16807ELm0ELm2147483647EEEEsRT_
FN:192,_ZNSt24uniform_int_distributionIcEclISt26linear_congruential_engineImLm16807ELm0ELm2147483647EEEEcRT_
FNDA:500000000,_ZNSt24uniform_int_distributionIcEclISt26linear_congruential_engineImLm16807ELm0ELm2147483647EEEEcRT_
FN:192,_ZNSt24uniform_int_distributionIiEclISt26linear_congruential_engineImLm16807ELm0ELm2147483647EEEEiRT_
FNDA:500000000,_ZNSt24uniform_int_distributionIiEclISt26linear_congruential_engineImLm16807ELm0ELm2147483647EEEEiRT_
FN:276,_ZNSt24uniform_int_distributionIcEclISt26linear_congruential_engineImLm16807ELm0ELm2147483647EEEEcRT_RKNS0_10param_typeE
FNDA:500000000,_ZNSt24uniform_int_distributionIcEclISt26linear_congruential_engineImLm16807ELm0ELm2147483647EEEEcRT_RKNS0_10param_typeE
FN:276,_ZNSt24uniform_int_distributionIiEclISt26linear_congruential_engineImLm16807ELm0ELm2147483647EEEEiRT_RKNS0_10param_typeE
FNDA:500000000,_ZNSt24uniform_int_distributionIiEclISt26linear_congruential_engineImLm16807ELm0ELm2147483647EEEEiRT_RKNS0_10param_typeE
FN:276,_ZNSt24uniform_int_distributionIsEclISt26linear_congruential_engineImLm16807ELm0ELm2147483647EEEEsRT_RKNS0_10param_typeE
FNDA:500000000,_ZNSt24uniform_int_distributionIsEclISt26linear_congruential_engineImLm16807ELm0ELm2147483647EEEEsRT_RKNS0_10param_typeE
FNF:18
FNH:18
DA:93,5
DA:95,5
DA:98,5
DA:93,5
DA:95,5
DA:98,5
DA:93,5
DA:95,5
DA:98,5
DA:101,1000000000
DA:102,1000000000
DA:101,1000000000
DA:102,1000000000
DA:101,1000000000
DA:102,1000000000
DA:105,500000000
DA:106,500000000
DA:105,500000000
DA:106,500000000
DA:105,500000000
DA:106,500000000
DA:131,5
DA:134,5
DA:135,5
DA:131,5
DA:134,5
DA:135,5
DA:131,5
DA:134,5
DA:135,5
DA:192,500000000
DA:193,500000000
DA:192,500000000
DA:193,500000000
DA:192,500000000
DA:193,500000000
DA:276,500000000
DA:284,500000000
DA:285,500000000
DA:288,500000000
DA:290,500000000
DA:291,500000000
DA:294,500000000
DA:298,500000000
DA:322,500000000
DA:323,500000000
DA:325,500000000
DA:326,500000000
DA:327,500000000
DA:330,0
DA:350,0
DA:351,0
DA:352,0
DA:353,0
DA:355,0
DA:358,0
DA:360,500000000
DA:276,500000000
DA:284,500000000
DA:285,500000000
DA:288,500000000
DA:290,500000000
DA:291,500000000
DA:294,500000000
DA:298,500000000
DA:322,500000000
DA:323,500000000
DA:325,500000001
DA:326,500000001
DA:327,500000000
DA:330,0
DA:350,0
DA:351,0
DA:352,0
DA:353,0
DA:355,0
DA:358,0
DA:360,500000000
DA:276,500000000
DA:284,500000000
DA:285,500000000
DA:288,500000000
DA:290,500000000
DA:291,500000000
DA:294,500000000
DA:298,500000000
DA:322,500000000
DA:323,500000000
DA:325,500000002
DA:326,500000002
DA:327,500000000
DA:330,0
DA:350,0
DA:351,0
DA:352,0
DA:353,0
DA:355,0
DA:358,0
DA:360,500000000
LF:99
LH:78
end_of_record
SF:/u/sw/toolchains/gcc-glibc/11.2.0/prefix/include/c++/11.2.0/bits/stl_iterator.h
FN:1010,_ZN9__gnu_cxx17__normal_iteratorIP7Struct2St6vectorIS1_SaIS1_EEEC2ERKS2_
FNDA:6,_ZN9__gnu_cxx17__normal_iteratorIP7Struct2St6vectorIS1_SaIS1_EEEC2ERKS2_
FN:1010,_ZN9__gnu_cxx17__normal_iteratorIP12Struct1Pack4St6vectorIS1_SaIS1_EEEC2ERKS2_
FNDA:6,_ZN9__gnu_cxx17__normal_iteratorIP12Struct1Pack4St6vectorIS1_SaIS1_EEEC2ERKS2_
FN:1010,_ZN9__gnu_cxx17__normal_iteratorIP12Struct1Pack2St6vectorIS1_SaIS1_EEEC2ERKS2_
FNDA:6,_ZN9__gnu_cxx17__normal_iteratorIP12Struct1Pack2St6vectorIS1_SaIS1_EEEC2ERKS2_
FN:1010,_ZN9__gnu_cxx17__normal_iteratorIP7Struct1St6vectorIS1_SaIS1_EEEC2ERKS2_
FNDA:6,_ZN9__gnu_cxx17__normal_iteratorIP7Struct1St6vectorIS1_SaIS1_EEEC2ERKS2_
FN:1010,_ZN9__gnu_cxx17__normal_iteratorIP12Struct1Pack1St6vectorIS1_SaIS1_EEEC2ERKS2_
FNDA:6,_ZN9__gnu_cxx17__normal_iteratorIP12Struct1Pack1St6vectorIS1_SaIS1_EEEC2ERKS2_
FN:1025,_ZNK9__gnu_cxx17__normal_iteratorIP7Struct2St6vectorIS1_SaIS1_EEEdeEv
FNDA:200000001,_ZNK9__gnu_cxx17__normal_iteratorIP7Struct2St6vectorIS1_SaIS1_EEEdeEv
FN:1025,_ZNK9__gnu_cxx17__normal_iteratorIP7Struct1St6vectorIS1_SaIS1_EEEdeEv
FNDA:200000001,_ZNK9__gnu_cxx17__normal_iteratorIP7Struct1St6vectorIS1_SaIS1_EEEdeEv
FN:1025,_ZNK9__gnu_cxx17__normal_iteratorIP12Struct1Pack1St6vectorIS1_SaIS1_EEEdeEv
FNDA:200000001,_ZNK9__gnu_cxx17__normal_iteratorIP12Struct1Pack1St6vectorIS1_SaIS1_EEEdeEv
FN:1025,_ZNK9__gnu_cxx17__normal_iteratorIP12Struct1Pack2St6vectorIS1_SaIS1_EEEdeEv
FNDA:200000001,_ZNK9__gnu_cxx17__normal_iteratorIP12Struct1Pack2St6vectorIS1_SaIS1_EEEdeEv
FN:1025,_ZNK9__gnu_cxx17__normal_iteratorIP12Struct1Pack4St6vectorIS1_SaIS1_EEEdeEv
FNDA:200000001,_ZNK9__gnu_cxx17__normal_iteratorIP12Struct1Pack4St6vectorIS1_SaIS1_EEEdeEv
FN:1035,_ZN9__gnu_cxx17__normal_iteratorIP7Struct2St6vectorIS1_SaIS1_EEEppEv
FNDA:200000000,_ZN9__gnu_cxx17__normal_iteratorIP7Struct2St6vectorIS1_SaIS1_EEEppEv
FN:1035,_ZN9__gnu_cxx17__normal_iteratorIP12Struct1Pack4St6vectorIS1_SaIS1_EEEppEv
FNDA:200000000,_ZN9__gnu_cxx17__normal_iteratorIP12Struct1Pack4St6vectorIS1_SaIS1_EEEppEv
FN:1035,_ZN9__gnu_cxx17__normal_iteratorIP7Struct1St6vectorIS1_SaIS1_EEEppEv
FNDA:200000000,_ZN9__gnu_cxx17__normal_iteratorIP7Struct1St6vectorIS1_SaIS1_EEEppEv
FN:1035,_ZN9__gnu_cxx17__normal_iteratorIP12Struct1Pack2St6vectorIS1_SaIS1_EEEppEv
FNDA:200000000,_ZN9__gnu_cxx17__normal_iteratorIP12Struct1Pack2St6vectorIS1_SaIS1_EEEppEv
FN:1035,_ZN9__gnu_cxx17__normal_iteratorIP12Struct1Pack1St6vectorIS1_SaIS1_EEEppEv
FNDA:200000000,_ZN9__gnu_cxx17__normal_iteratorIP12Struct1Pack1St6vectorIS1_SaIS1_EEEppEv
FN:1083,_ZNK9__gnu_cxx17__normal_iteratorIP12Struct1Pack1St6vectorIS1_SaIS1_EEEmiEl
FNDA:1,_ZNK9__gnu_cxx17__normal_iteratorIP12Struct1Pack1St6vectorIS1_SaIS1_EEEmiEl
FN:1083,_ZNK9__gnu_cxx17__normal_iteratorIP12Struct1Pack2St6vectorIS1_SaIS1_EEEmiEl
FNDA:1,_ZNK9__gnu_cxx17__normal_iteratorIP12Struct1Pack2St6vectorIS1_SaIS1_EEEmiEl
FN:1083,_ZNK9__gnu_cxx17__normal_iteratorIP7Struct1St6vectorIS1_SaIS1_EEEmiEl
FNDA:1,_ZNK9__gnu_cxx17__normal_iteratorIP7Struct1St6vectorIS1_SaIS1_EEEmiEl
FN:1083,_ZNK9__gnu_cxx17__normal_iteratorIP12Struct1Pack4St6vectorIS1_SaIS1_EEEmiEl
FNDA:1,_ZNK9__gnu_cxx17__normal_iteratorIP12Struct1Pack4St6vectorIS1_SaIS1_EEEmiEl
FN:1083,_ZNK9__gnu_cxx17__normal_iteratorIP7Struct2St6vectorIS1_SaIS1_EEEmiEl
FNDA:1,_ZNK9__gnu_cxx17__normal_iteratorIP7Struct2St6vectorIS1_SaIS1_EEEmiEl
FN:1088,_ZNK9__gnu_cxx17__normal_iteratorIP7Struct1St6vectorIS1_SaIS1_EEE4baseEv
FNDA:400000004,_ZNK9__gnu_cxx17__normal_iteratorIP7Struct1St6vectorIS1_SaIS1_EEE4baseEv
FN:1088,_ZNK9__gnu_cxx17__normal_iteratorIP7Struct2St6vectorIS1_SaIS1_EEE4baseEv
FNDA:400000004,_ZNK9__gnu_cxx17__normal_iteratorIP7Struct2St6vectorIS1_SaIS1_EEE4baseEv
FN:1088,_ZNK9__gnu_cxx17__normal_iteratorIP12Struct1Pack1St6vectorIS1_SaIS1_EEE4baseEv
FNDA:400000004,_ZNK9__gnu_cxx17__normal_iteratorIP12Struct1Pack1St6vectorIS1_SaIS1_EEE4baseEv
FN:1088,_ZNK9__gnu_cxx17__normal_iteratorIP12Struct1Pack2St6vectorIS1_SaIS1_EEE4baseEv
FNDA:400000004,_ZNK9__gnu_cxx17__normal_iteratorIP12Struct1Pack2St6vectorIS1_SaIS1_EEE4baseEv
FN:1088,_ZNK9__gnu_cxx17__normal_iteratorIP12Struct1Pack4St6vectorIS1_SaIS1_EEE4baseEv
FNDA:400000004,_ZNK9__gnu_cxx17__normal_iteratorIP12Struct1Pack4St6vectorIS1_SaIS1_EEE4baseEv
FN:1145,_ZN9__gnu_cxxneIP7Struct1St6vectorIS1_SaIS1_EEEEbRKNS_17__normal_iteratorIT_T0_EESB_
FNDA:200000002,_ZN9__gnu_cxxneIP7Struct1St6vectorIS1_SaIS1_EEEEbRKNS_17__normal_iteratorIT_T0_EESB_
FN:1145,_ZN9__gnu_cxxneIP12Struct1Pack1St6vectorIS1_SaIS1_EEEEbRKNS_17__normal_iteratorIT_T0_EESB_
FNDA:200000002,_ZN9__gnu_cxxneIP12Struct1Pack1St6vectorIS1_SaIS1_EEEEbRKNS_17__normal_iteratorIT_T0_EESB_
FN:1145,_ZN9__gnu_cxxneIP12Struct1Pack2St6vectorIS1_SaIS1_EEEEbRKNS_17__normal_iteratorIT_T0_EESB_
FNDA:200000002,_ZN9__gnu_cxxneIP12Struct1Pack2St6vectorIS1_SaIS1_EEEEbRKNS_17__normal_iteratorIT_T0_EESB_
FN:1145,_ZN9__gnu_cxxneIP12Struct1Pack4St6vectorIS1_SaIS1_EEEEbRKNS_17__normal_iteratorIT_T0_EESB_
FNDA:200000002,_ZN9__gnu_cxxneIP12Struct1Pack4St6vectorIS1_SaIS1_EEEEbRKNS_17__normal_iteratorIT_T0_EESB_
FN:1145,_ZN9__gnu_cxxneIP7Struct2St6vectorIS1_SaIS1_EEEEbRKNS_17__normal_iteratorIT_T0_EESB_
FNDA:200000002,_ZN9__gnu_cxxneIP7Struct2St6vectorIS1_SaIS1_EEEEbRKNS_17__normal_iteratorIT_T0_EESB_
FNF:30
FNH:30
DA:1010,6
DA:1011,6
DA:1010,6
DA:1011,6
DA:1010,6
DA:1011,6
DA:1010,6
DA:1011,6
DA:1010,6
DA:1011,6
DA:1025,200000001
DA:1026,200000001
DA:1025,200000001
DA:1026,200000001
DA:1025,200000001
DA:1026,200000001
DA:1025,200000001
DA:1026,200000001
DA:1025,200000001
DA:1026,200000001
DA:1035,200000000
DA:1037,200000000
DA:1038,200000000
DA:1035,200000000
DA:1037,200000000
DA:1038,200000000
DA:1035,200000000
DA:1037,200000000
DA:1038,200000000
DA:1035,200000000
DA:1037,200000000
DA:1038,200000000
DA:1035,200000000
DA:1037,200000000
DA:1038,200000000
DA:1083,1
DA:1084,1
DA:1083,1
DA:1084,1
DA:1083,1
DA:1084,1
DA:1083,1
DA:1084,1
DA:1083,1
DA:1084,1
DA:1088,400000004
DA:1089,400000004
DA:1088,400000004
DA:1089,400000004
DA:1088,400000004
DA:1089,400000004
DA:1088,400000004
DA:1089,400000004
DA:1088,400000004
DA:1089,400000004
DA:1145,200000002
DA:1148,200000002
DA:1145,200000002
DA:1148,200000002
DA:1145,200000002
DA:1148,200000002
DA:1145,200000002
DA:1148,200000002
DA:1145,200000002
DA:1148,200000002
LF:65
LH:65
end_of_record
SF:/u/sw/toolchains/gcc-glibc/11.2.0/prefix/include/c++/11.2.0/chrono
FN:210,_ZNSt6chrono20__duration_cast_implINS_8durationIlSt5ratioILl1ELl1000EEEES2_ILl1ELl1000000EElLb1ELb0EE6__castIlS2_ILl1ELl1000000000EEEES4_RKNS1_IT_T0_EE
FNDA:15,_ZNSt6chrono20__duration_cast_implINS_8durationIlSt5ratioILl1ELl1000EEEES2_ILl1ELl1000000EElLb1ELb0EE6__castIlS2_ILl1ELl1000000000EEEES4_RKNS1_IT_T0_EE
FN:254,_ZNSt6chrono13duration_castINS_8durationIlSt5ratioILl1ELl1000EEEElS2_ILl1ELl1000000000EEEENSt9enable_ifIXsrNS_13__is_durationIT_EE5valueES8_E4typeERKNS1_IT0_T1_EE
FNDA:15,_ZNSt6chrono13duration_castINS_8durationIlSt5ratioILl1ELl1000EEEElS2_ILl1ELl1000000000EEEENSt9enable_ifIXsrNS_13__is_durationIT_EE5valueES8_E4typeERKNS1_IT0_T1_EE
FN:509,_ZNSt6chrono8durationIlSt5ratioILl1ELl1000EEEC2IlvEERKT_
FNDA:15,_ZNSt6chrono8durationIlSt5ratioILl1ELl1000EEEC2IlvEERKT_
FN:509,_ZNSt6chrono8durationIlSt5ratioILl1ELl1000000000EEEC1IlvEERKT_
FNDA:15,_ZNSt6chrono8durationIlSt5ratioILl1ELl1000000000EEEC1IlvEERKT_
FN:525,_ZNKSt6chrono8durationIlSt5ratioILl1ELl1000EEE5countEv
FNDA:15,_ZNKSt6chrono8durationIlSt5ratioILl1ELl1000EEE5countEv
FN:525,_ZNKSt6chrono8durationIlSt5ratioILl1ELl1000000000EEE5countEv
FNDA:45,_ZNKSt6chrono8durationIlSt5ratioILl1ELl1000000000EEE5countEv
FN:647,_ZNSt6chronomiIlSt5ratioILl1ELl1000000000EElS2_EENSt11common_typeIJNS_8durationIT_T0_EENS4_IT1_T2_EEEE4typeERKS7_RKSA_
FNDA:15,_ZNSt6chronomiIlSt5ratioILl1ELl1000000000EElS2_EENSt11common_typeIJNS_8durationIT_T0_EENS4_IT1_T2_EEEE4typeERKS7_RKSA_
FN:877,_ZNKSt6chrono10time_pointINS_3_V212system_clockENS_8durationIlSt5ratioILl1ELl1000000000EEEEE16time_since_epochEv
FNDA:30,_ZNKSt6chrono10time_pointINS_3_V212system_clockENS_8durationIlSt5ratioILl1ELl1000000000EEEEE16time_since_epochEv
FN:1024,_ZNSt6chronomiINS_3_V212system_clockENS_8durationIlSt5ratioILl1ELl1000000000EEEES6_EENSt11common_typeIJT0_T1_EE4typeERKNS_10time_pointIT_S8_EERKNSC_ISD_S9_EE
FNDA:15,_ZNSt6chronomiINS_3_V212system_clockENS_8durationIlSt5ratioILl1ELl1000000000EEEES6_EENSt11common_typeIJT0_T1_EE4typeERKNS_10time_pointIT_S8_EERKNSC_ISD_S9_EE
FNF:9
FNH:9
DA:210,15
DA:213,30
DA:214,15
DA:254,15
DA:263,15
DA:509,15
DA:510,15
DA:509,15
DA:510,15
DA:525,15
DA:526,15
DA:525,45
DA:526,45
DA:647,15
DA:653,15
DA:877,30
DA:878,30
DA:1024,15
DA:1026,15
LF:19
LH:19
end_of_record
SF:/u/sw/toolchains/gcc-glibc/11.2.0/prefix/include/c++/11.2.0/bits/random.tcc
FN:116,_ZNSt26linear_congruential_engineImLm16807ELm0ELm2147483647EE4seedEm
FNDA:5,_ZNSt26linear_congruential_engineImLm16807ELm0ELm2147483647EE4seedEm
FNF:1
FNH:1
DA:116,5
DA:119,5
DA:120,5
DA:121,0
DA:123,5
DA:124,5
LF:6
LH:5
end_of_record
SF:/home/jellyfish/shared-folder/hpcLab/AMSC/materials/labSlide/lab04-optimization-profiling/extra-padding/main.cpp
FN:67,_Z18print_padding_infoI7Struct2Evv
FNDA:1,_Z18print_padding_infoI7Struct2Evv
FN:67,_Z18print_padding_infoI12Struct1Pack4Evv
FNDA:1,_Z18print_padding_infoI12Struct1Pack4Evv
FN:67,_Z18print_padding_infoI12Struct1Pack2Evv
FNDA:1,_Z18print_padding_infoI12Struct1Pack2Evv
FN:67,_Z18print_padding_infoI12Struct1Pack1Evv
FNDA:1,_Z18print_padding_infoI12Struct1Pack1Evv
FN:67,_Z18print_padding_infoI7Struct1Evv
FNDA:1,_Z18print_padding_infoI7Struct1Evv
FN:80,_Z24test_allocate_write_readI7Struct2Evv
FNDA:1,_Z24test_allocate_write_readI7Struct2Evv
FN:80,_Z24test_allocate_write_readI12Struct1Pack4Evv
FNDA:1,_Z24test_allocate_write_readI12Struct1Pack4Evv
FN:80,_Z24test_allocate_write_readI12Struct1Pack2Evv
FNDA:1,_Z24test_allocate_write_readI12Struct1Pack2Evv
FN:80,_Z24test_allocate_write_readI12Struct1Pack1Evv
FNDA:1,_Z24test_allocate_write_readI12Struct1Pack1Evv
FN:80,_Z24test_allocate_write_readI7Struct1Evv
FNDA:1,_Z24test_allocate_write_readI7Struct1Evv
FN:133,main
FNDA:1,main
FNF:11
FNH:11
DA:67,1
DA:68,1
DA:71,1
DA:72,1
DA:73,1
DA:74,1
DA:75,1
DA:76,1
DA:77,1
DA:67,1
DA:68,1
DA:71,1
DA:72,1
DA:73,1
DA:74,1
DA:75,1
DA:76,1
DA:77,1
DA:67,1
DA:68,1
DA:71,1
DA:72,1
DA:73,1
DA:74,1
DA:75,1
DA:76,1
DA:77,1
DA:67,1
DA:68,1
DA:71,1
DA:72,1
DA:73,1
DA:74,1
DA:75,1
DA:76,1
DA:77,1
DA:67,1
DA:68,1
DA:71,1
DA:72,1
DA:73,1
DA:74,1
DA:75,1
DA:76,1
DA:77,1
DA:80,1
DA:84,1
DA:85,1
DA:86,1
DA:88,1
DA:89,1
DA:90,1
DA:91,1
DA:92,1
DA:93,1
DA:94,1
DA:95,1
DA:98,1
DA:99,1
DA:100,1
DA:101,1
DA:105,1
DA:106,100000001
DA:107,100000000
DA:108,100000000
DA:109,100000000
DA:111,1
DA:112,1
DA:113,1
DA:118,1
DA:119,1
DA:120,1
DA:121,1
DA:122,100000001
DA:123,100000000
DA:124,100000000
DA:125,100000000
DA:127,1
DA:128,1
DA:129,1
DA:131,1
DA:80,1
DA:84,1
DA:85,1
DA:86,1
DA:88,1
DA:89,1
DA:90,1
DA:91,1
DA:92,1
DA:93,1
DA:94,1
DA:95,1
DA:98,1
DA:99,1
DA:100,1
DA:101,1
DA:105,1
DA:106,100000001
DA:107,100000000
DA:108,100000000
DA:109,100000000
DA:111,1
DA:112,1
DA:113,1
DA:118,1
DA:119,1
DA:120,1
DA:121,1
DA:122,100000001
DA:123,100000000
DA:124,100000000
DA:125,100000000
DA:127,1
DA:128,1
DA:129,1
DA:131,1
DA:80,1
DA:84,1
DA:85,1
DA:86,1
DA:88,1
DA:89,1
DA:90,1
DA:91,1
DA:92,1
DA:93,1
DA:94,1
DA:95,1
DA:98,1
DA:99,1
DA:100,1
DA:101,1
DA:105,1
DA:106,100000001
DA:107,100000000
DA:108,100000000
DA:109,100000000
DA:111,1
DA:112,1
DA:113,1
DA:118,1
DA:119,1
DA:120,1
DA:121,1
DA:122,100000001
DA:123,100000000
DA:124,100000000
DA:125,100000000
DA:127,1
DA:128,1
DA:129,1
DA:131,1
DA:80,1
DA:84,1
DA:85,1
DA:86,1
DA:88,1
DA:89,1
DA:90,1
DA:91,1
DA:92,1
DA:93,1
DA:94,1
DA:95,1
DA:98,1
DA:99,1
DA:100,1
DA:101,1
DA:105,1
DA:106,100000001
DA:107,100000000
DA:108,100000000
DA:109,100000000
DA:111,1
DA:112,1
DA:113,1
DA:118,1
DA:119,1
DA:120,1
DA:121,1
DA:122,100000001
DA:123,100000000
DA:124,100000000
DA:125,100000000
DA:127,1
DA:128,1
DA:129,1
DA:131,1
DA:80,1
DA:84,1
DA:85,1
DA:86,1
DA:88,1
DA:89,1
DA:90,1
DA:91,1
DA:92,1
DA:93,1
DA:94,1
DA:95,1
DA:98,1
DA:99,1
DA:100,1
DA:101,1
DA:105,1
DA:106,100000001
DA:107,100000000
DA:108,100000000
DA:109,100000000
DA:111,1
DA:112,1
DA:113,1
DA:118,1
DA:119,1
DA:120,1
DA:121,1
DA:122,100000001
DA:123,100000000
DA:124,100000000
DA:125,100000000
DA:127,1
DA:128,1
DA:129,1
DA:131,1
DA:133,1
DA:134,1
DA:135,1
DA:136,1
DA:137,1
DA:139,1
DA:140,1
DA:141,1
DA:142,1
DA:144,1
DA:145,1
DA:146,1
DA:147,1
DA:149,1
DA:150,1
DA:151,1
DA:152,1
DA:154,1
DA:155,1
DA:156,1
DA:157,1
DA:158,1
LF:247
LH:247
end_of_record
SF:/u/sw/toolchains/gcc-glibc/11.2.0/prefix/include/c++/11.2.0/bits/random.h
FN:137,_ZNSt8__detail4_ModImLm2147483647ELm16807ELm0ELb1ELb1EE6__calcEm
FNDA:1500000003,_ZNSt8__detail4_ModImLm2147483647ELm16807ELm0ELb1ELb1EE6__calcEm
FN:137,_ZNSt8__detail4_ModImLm2147483647ELm1ELm0ELb1ELb1EE6__calcEm
FNDA:15,_ZNSt8__detail4_ModImLm2147483647ELm1ELm0ELb1ELb1EE6__calcEm
FN:148,_ZNSt8__detail5__modImLm2147483647ELm16807ELm0EEET_S1_
FNDA:1500000003,_ZNSt8__detail5__modImLm2147483647ELm16807ELm0EEET_S1_
FN:148,_ZNSt8__detail5__modImLm2147483647ELm1ELm0EEET_S1_
FNDA:15,_ZNSt8__detail5__modImLm2147483647ELm1ELm0EEET_S1_
FN:293,_ZNSt26linear_congruential_engineImLm16807ELm0ELm2147483647EEC2Em
FNDA:5,_ZNSt26linear_congruential_engineImLm16807ELm0ELm2147483647EEC2Em
FN:358,_ZNSt26linear_congruential_engineImLm16807ELm0ELm2147483647EEclEv
FNDA:1500000003,_ZNSt26linear_congruential_engineImLm16807ELm0ELm2147483647EEclEv
FN:1618,_ZNSt13random_deviceC2Ev
FNDA:5,_ZNSt13random_deviceC2Ev
FN:1624,_ZNSt13random_deviceD2Ev
FNDA:5,_ZNSt13random_deviceD2Ev
FN:1647,_ZNSt13random_deviceclEv
FNDA:5,_ZNSt13random_deviceclEv
FNF:9
FNH:9
DA:137,1500000003
DA:139,1500000003
DA:141,1500000003
DA:142,1500000003
DA:137,15
DA:139,15
DA:141,15
DA:142,15
DA:148,1500000003
DA:155,1500000003
DA:156,1500000003
DA:148,15
DA:155,15
DA:156,15
DA:293,5
DA:294,5
DA:358,1500000003
DA:360,1500000003
DA:361,1500000003
DA:1618,5
DA:1624,5
DA:1625,5
DA:1647,5
DA:1648,5
LF:24
LH:24
end_of_record
SF:/u/sw/toolchains/gcc-glibc/11.2.0/prefix/include/c++/11.2.0/ext/new_allocator.h
FN:79,_ZN9__gnu_cxx13new_allocatorIcEC2Ev
FNDA:0,_ZN9__gnu_cxx13new_allocatorIcEC2Ev
FN:79,_ZN9__gnu_cxx13new_allocatorI7Struct2EC2Ev
FNDA:1,_ZN9__gnu_cxx13new_allocatorI7Struct2EC2Ev
FN:79,_ZN9__gnu_cxx13new_allocatorI12Struct1Pack4EC2Ev
FNDA:1,_ZN9__gnu_cxx13new_allocatorI12Struct1Pack4EC2Ev
FN:79,_ZN9__gnu_cxx13new_allocatorI12Struct1Pack2EC2Ev
FNDA:1,_ZN9__gnu_cxx13new_allocatorI12Struct1Pack2EC2Ev
FN:79,_ZN9__gnu_cxx13new_allocatorI12Struct1Pack1EC2Ev
FNDA:1,_ZN9__gnu_cxx13new_allocatorI12Struct1Pack1EC2Ev
FN:79,_ZN9__gnu_cxx13new_allocatorI7Struct1EC2Ev
FNDA:1,_ZN9__gnu_cxx13new_allocatorI7Struct1EC2Ev
FN:82,_ZN9__gnu_cxx13new_allocatorI12Struct1Pack2EC2ERKS2_
FNDA:2,_ZN9__gnu_cxx13new_allocatorI12Struct1Pack2EC2ERKS2_
FN:82,_ZN9__gnu_cxx13new_allocatorI12Struct1Pack4EC2ERKS2_
FNDA:2,_ZN9__gnu_cxx13new_allocatorI12Struct1Pack4EC2ERKS2_
FN:82,_ZN9__gnu_cxx13new_allocatorI7Struct2EC2ERKS2_
FNDA:2,_ZN9__gnu_cxx13new_allocatorI7Struct2EC2ERKS2_
FN:82,_ZN9__gnu_cxx13new_allocatorI12Struct1Pack1EC2ERKS2_
FNDA:2,_ZN9__gnu_cxx13new_allocatorI12Struct1Pack1EC2ERKS2_
FN:82,_ZN9__gnu_cxx13new_allocatorI7Struct1EC2ERKS2_
FNDA:2,_ZN9__gnu_cxx13new_allocatorI7Struct1EC2ERKS2_
FN:89,_ZN9__gnu_cxx13new_allocatorI12Struct1Pack4ED2Ev
FNDA:3,_ZN9__gnu_cxx13new_allocatorI12Struct1Pack4ED2Ev
FN:89,_ZN9__gnu_cxx13new_allocatorI7Struct2ED2Ev
FNDA:3,_ZN9__gnu_cxx13new_allocatorI7Struct2ED2Ev
FN:89,_ZN9__gnu_cxx13new_allocatorI12Struct1Pack2ED2Ev
FNDA:3,_ZN9__gnu_cxx13new_allocatorI12Struct1Pack2ED2Ev
FN:89,_ZN9__gnu_cxx13new_allocatorIcED2Ev
FNDA:0,_ZN9__gnu_cxx13new_allocatorIcED2Ev
FN:89,_ZN9__gnu_cxx13new_allocatorI12Struct1Pack1ED2Ev
FNDA:3,_ZN9__gnu_cxx13new_allocatorI12Struct1Pack1ED2Ev
FN:89,_ZN9__gnu_cxx13new_allocatorI7Struct1ED2Ev
FNDA:3,_ZN9__gnu_cxx13new_allocatorI7Struct1ED2Ev
FN:103,_ZN9__gnu_cxx13new_allocatorI12Struct1Pack4E8allocateEmPKv
FNDA:1,_ZN9__gnu_cxx13new_allocatorI12Struct1Pack4E8allocateEmPKv
FN:103,_ZN9__gnu_cxx13new_allocatorI7Struct2E8allocateEmPKv
FNDA:1,_ZN9__gnu_cxx13new_allocatorI7Struct2E8allocateEmPKv
FN:103,_ZN9__gnu_cxx13new_allocatorI12Struct1Pack2E8allocateEmPKv
FNDA:1,_ZN9__gnu_cxx13new_allocatorI12Struct1Pack2E8allocateEmPKv
FN:103,_ZN9__gnu_cxx13new_allocatorI7Struct1E8allocateEmPKv
FNDA:1,_ZN9__gnu_cxx13new_allocatorI7Struct1E8allocateEmPKv
FN:103,_ZN9__gnu_cxx13new_allocatorI12Struct1Pack1E8allocateEmPKv
FNDA:1,_ZN9__gnu_cxx13new_allocatorI12Struct1Pack1E8allocateEmPKv
FN:132,_ZN9__gnu_cxx13new_allocatorI7Struct1E10deallocateEPS1_m
FNDA:1,_ZN9__gnu_cxx13new_allocatorI7Struct1E10deallocateEPS1_m
FN:132,_ZN9__gnu_cxx13new_allocatorI12Struct1Pack1E10deallocateEPS1_m
FNDA:1,_ZN9__gnu_cxx13new_allocatorI12Struct1Pack1E10deallocateEPS1_m
FN:132,_ZN9__gnu_cxx13new_allocatorI12Struct1Pack2E10deallocateEPS1_m
FNDA:1,_ZN9__gnu_cxx13new_allocatorI12Struct1Pack2E10deallocateEPS1_m
FN:132,_ZN9__gnu_cxx13new_allocatorI12Struct1Pack4E10deallocateEPS1_m
FNDA:1,_ZN9__gnu_cxx13new_allocatorI12Struct1Pack4E10deallocateEPS1_m
FN:132,_ZN9__gnu_cxx13new_allocatorI7Struct2E10deallocateEPS1_m
FNDA:1,_ZN9__gnu_cxx13new_allocatorI7Struct2E10deallocateEPS1_m
FN:154,_ZNK9__gnu_cxx13new_allocatorI7Struct1E8max_sizeEv
FNDA:1,_ZNK9__gnu_cxx13new_allocatorI7Struct1E8max_sizeEv
FN:154,_ZNK9__gnu_cxx13new_allocatorI12Struct1Pack1E8max_sizeEv
FNDA:1,_ZNK9__gnu_cxx13new_allocatorI12Struct1Pack1E8max_sizeEv
FN:154,_ZNK9__gnu_cxx13new_allocatorI12Struct1Pack2E8max_sizeEv
FNDA:1,_ZNK9__gnu_cxx13new_allocatorI12Struct1Pack2E8max_sizeEv
FN:154,_ZNK9__gnu_cxx13new_allocatorI12Struct1Pack4E8max_sizeEv
FNDA:1,_ZNK9__gnu_cxx13new_allocatorI12Struct1Pack4E8max_sizeEv
FN:154,_ZNK9__gnu_cxx13new_allocatorI7Struct2E8max_sizeEv
FNDA:1,_ZNK9__gnu_cxx13new_allocatorI7Struct2E8max_sizeEv
FN:197,_ZNK9__gnu_cxx13new_allocatorI7Struct1E11_M_max_sizeEv
FNDA:2,_ZNK9__gnu_cxx13new_allocatorI7Struct1E11_M_max_sizeEv
FN:197,_ZNK9__gnu_cxx13new_allocatorI12Struct1Pack1E11_M_max_sizeEv
FNDA:2,_ZNK9__gnu_cxx13new_allocatorI12Struct1Pack1E11_M_max_sizeEv
FN:197,_ZNK9__gnu_cxx13new_allocatorI12Struct1Pack2E11_M_max_sizeEv
FNDA:2,_ZNK9__gnu_cxx13new_allocatorI12Struct1Pack2E11_M_max_sizeEv
FN:197,_ZNK9__gnu_cxx13new_allocatorI12Struct1Pack4E11_M_max_sizeEv
FNDA:2,_ZNK9__gnu_cxx13new_allocatorI12Struct1Pack4E11_M_max_sizeEv
FN:197,_ZNK9__gnu_cxx13new_allocatorI7Struct2E11_M_max_sizeEv
FNDA:2,_ZNK9__gnu_cxx13new_allocatorI7Struct2E11_M_max_sizeEv
FNF:37
FNH:35
DA:79,1
DA:79,1
DA:79,1
DA:79,1
DA:79,1
DA:79,0
DA:82,2
DA:82,2
DA:82,2
DA:82,2
DA:82,2
DA:89,3
DA:89,3
DA:89,3
DA:89,3
DA:89,3
DA:89,0
DA:103,1
DA:111,1
DA:115,0
DA:116,0
DA:117,0
DA:127,1
DA:103,1
DA:111,1
DA:115,0
DA:116,0
DA:117,0
DA:127,1
DA:103,1
DA:111,1
DA:115,0
DA:116,0
DA:117,0
DA:127,1
DA:103,1
DA:111,1
DA:115,0
DA:116,0
DA:117,0
DA:127,1
DA:103,1
DA:111,1
DA:115,0
DA:116,0
DA:117,0
DA:127,1
DA:132,1
DA:145,1
DA:132,1
DA:145,1
DA:132,1
DA:145,1
DA:132,1
DA:145,1
DA:132,1
DA:145,1
DA:154,1
DA:155,1
DA:154,1
DA:155,1
DA:154,1
DA:155,1
DA:154,1
DA:155,1
DA:154,1
DA:155,1
DA:197,2
DA:200,2
DA:197,2
DA:200,2
DA:197,2
DA:200,2
DA:197,2
DA:200,2
DA:197,2
DA:200,2
LF:77
LH:60
end_of_record
SF:/u/sw/toolchains/gcc-glibc/11.2.0/prefix/include/c++/11.2.0/bits/char_traits.h
FN:106,_ZN9__gnu_cxx11char_traitsIcE2eqERKcS3_
FNDA:0,_ZN9__gnu_cxx11char_traitsIcE2eqERKcS3_
FN:167,_ZN9__gnu_cxx11char_traitsIcE6lengthEPKc
FNDA:0,_ZN9__gnu_cxx11char_traitsIcE6lengthEPKc
FN:365,_ZNSt11char_traitsIcE6lengthEPKc
FNDA:5,_ZNSt11char_traitsIcE6lengthEPKc
FNF:3
FNH:1
DA:106,0
DA:107,0
DA:167,0
DA:170,0
DA:171,0
DA:172,0
DA:173,0
DA:262,5
DA:365,5
DA:368,5
DA:369,0
DA:371,5
LF:12
LH:4
end_of_record
SF:/u/sw/toolchains/gcc-glibc/11.2.0/prefix/include/c++/11.2.0/bits/stl_algobase.h
FN:230,_ZSt3minImERKT_S2_S2_
FNDA:5,_ZSt3minImERKT_S2_S2_
FN:908,_ZSt9__fill_a1IP12Struct1Pack4S0_EN9__gnu_cxx11__enable_ifIXntsrSt11__is_scalarIT0_E7__valueEvE6__typeET_S9_RKS5_
FNDA:1,_ZSt9__fill_a1IP12Struct1Pack4S0_EN9__gnu_cxx11__enable_ifIXntsrSt11__is_scalarIT0_E7__valueEvE6__typeET_S9_RKS5_
FN:908,_ZSt9__fill_a1IP12Struct1Pack2S0_EN9__gnu_cxx11__enable_ifIXntsrSt11__is_scalarIT0_E7__valueEvE6__typeET_S9_RKS5_
FNDA:1,_ZSt9__fill_a1IP12Struct1Pack2S0_EN9__gnu_cxx11__enable_ifIXntsrSt11__is_scalarIT0_E7__valueEvE6__typeET_S9_RKS5_
FN:908,_ZSt9__fill_a1IP12Struct1Pack1S0_EN9__gnu_cxx11__enable_ifIXntsrSt11__is_scalarIT0_E7__valueEvE6__typeET_S9_RKS5_
FNDA:1,_ZSt9__fill_a1IP12Struct1Pack1S0_EN9__gnu_cxx11__enable_ifIXntsrSt11__is_scalarIT0_E7__valueEvE6__typeET_S9_RKS5_
FN:908,_ZSt9__fill_a1IP7Struct1S0_EN9__gnu_cxx11__enable_ifIXntsrSt11__is_scalarIT0_E7__valueEvE6__typeET_S9_RKS5_
FNDA:1,_ZSt9__fill_a1IP7Struct1S0_EN9__gnu_cxx11__enable_ifIXntsrSt11__is_scalarIT0_E7__valueEvE6__typeET_S9_RKS5_
FN:908,_ZSt9__fill_a1IP7Struct2S0_EN9__gnu_cxx11__enable_ifIXntsrSt11__is_scalarIT0_E7__valueEvE6__typeET_S9_RKS5_
FNDA:1,_ZSt9__fill_a1IP7Struct2S0_EN9__gnu_cxx11__enable_ifIXntsrSt11__is_scalarIT0_E7__valueEvE6__typeET_S9_RKS5_
FN:968,_ZSt8__fill_aIP7Struct2S0_EvT_S2_RKT0_
FNDA:1,_ZSt8__fill_aIP7Struct2S0_EvT_S2_RKT0_
FN:968,_ZSt8__fill_aIP12Struct1Pack4S0_EvT_S2_RKT0_
FNDA:1,_ZSt8__fill_aIP12Struct1Pack4S0_EvT_S2_RKT0_
FN:968,_ZSt8__fill_aIP12Struct1Pack2S0_EvT_S2_RKT0_
FNDA:1,_ZSt8__fill_aIP12Struct1Pack2S0_EvT_S2_RKT0_
FN:968,_ZSt8__fill_aIP12Struct1Pack1S0_EvT_S2_RKT0_
FNDA:1,_ZSt8__fill_aIP12Struct1Pack1S0_EvT_S2_RKT0_
FN:968,_ZSt8__fill_aIP7Struct1S0_EvT_S2_RKT0_
FNDA:1,_ZSt8__fill_aIP7Struct1S0_EvT_S2_RKT0_
FN:1010,_ZSt17__size_to_integerm
FNDA:5,_ZSt17__size_to_integerm
FN:1109,_ZSt10__fill_n_aIP12Struct1Pack2mS0_ET_S2_T0_RKT1_St26random_access_iterator_tag
FNDA:1,_ZSt10__fill_n_aIP12Struct1Pack2mS0_ET_S2_T0_RKT1_St26random_access_iterator_tag
FN:1109,_ZSt10__fill_n_aIP12Struct1Pack1mS0_ET_S2_T0_RKT1_St26random_access_iterator_tag
FNDA:1,_ZSt10__fill_n_aIP12Struct1Pack1mS0_ET_S2_T0_RKT1_St26random_access_iterator_tag
FN:1109,_ZSt10__fill_n_aIP7Struct1mS0_ET_S2_T0_RKT1_St26random_access_iterator_tag
FNDA:1,_ZSt10__fill_n_aIP7Struct1mS0_ET_S2_T0_RKT1_St26random_access_iterator_tag
FN:1109,_ZSt10__fill_n_aIP12Struct1Pack4mS0_ET_S2_T0_RKT1_St26random_access_iterator_tag
FNDA:1,_ZSt10__fill_n_aIP12Struct1Pack4mS0_ET_S2_T0_RKT1_St26random_access_iterator_tag
FN:1109,_ZSt10__fill_n_aIP7Struct2mS0_ET_S2_T0_RKT1_St26random_access_iterator_tag
FNDA:1,_ZSt10__fill_n_aIP7Struct2mS0_ET_S2_T0_RKT1_St26random_access_iterator_tag
FN:1144,_ZSt6fill_nIP7Struct2mS0_ET_S2_T0_RKT1_
FNDA:1,_ZSt6fill_nIP7Struct2mS0_ET_S2_T0_RKT1_
FN:1144,_ZSt6fill_nIP12Struct1Pack4mS0_ET_S2_T0_RKT1_
FNDA:1,_ZSt6fill_nIP12Struct1Pack4mS0_ET_S2_T0_RKT1_
FN:1144,_ZSt6fill_nIP12Struct1Pack2mS0_ET_S2_T0_RKT1_
FNDA:1,_ZSt6fill_nIP12Struct1Pack2mS0_ET_S2_T0_RKT1_
FN:1144,_ZSt6fill_nIP12Struct1Pack1mS0_ET_S2_T0_RKT1_
FNDA:1,_ZSt6fill_nIP12Struct1Pack1mS0_ET_S2_T0_RKT1_
FN:1144,_ZSt6fill_nIP7Struct1mS0_ET_S2_T0_RKT1_
FNDA:1,_ZSt6fill_nIP7Struct1mS0_ET_S2_T0_RKT1_
FNF:22
FNH:22
DA:230,5
DA:235,5
DA:236,0
DA:237,5
DA:908,1
DA:911,100000000
DA:912,99999999
DA:913,1
DA:908,1
DA:911,100000000
DA:912,99999999
DA:913,1
DA:908,1
DA:911,100000000
DA:912,99999999
DA:913,1
DA:908,1
DA:911,100000000
DA:912,99999999
DA:913,1
DA:908,1
DA:911,100000000
DA:912,99999999
DA:913,1
DA:968,1
DA:969,1
DA:968,1
DA:969,1
DA:968,1
DA:969,1
DA:968,1
DA:969,1
DA:968,1
DA:969,1
DA:1010,5
DA:1109,1
DA:1115,1
DA:1116,0
DA:1120,1
DA:1121,1
DA:1109,1
DA:1115,1
DA:1116,0
DA:1120,1
DA:1121,1
DA:1109,1
DA:1115,1
DA:1116,0
DA:1120,1
DA:1121,1
DA:1109,1
DA:1115,1
DA:1116,0
DA:1120,1
DA:1121,1
DA:1109,1
DA:1115,1
DA:1116,0
DA:1120,1
DA:1121,1
DA:1144,1
DA:1149,1
DA:1150,2
DA:1144,1
DA:1149,1
DA:1150,2
DA:1144,1
DA:1149,1
DA:1150,2
DA:1144,1
DA:1149,1
DA:1150,2
DA:1144,1
DA:1149,1
DA:1150,2
LF:75
LH:69
end_of_record
SF:/u/sw/toolchains/gcc-glibc/11.2.0/prefix/include/c++/11.2.0/new
FN:174,_ZnwmPv
FNDA:5,_ZnwmPv
FNF:1
FNH:1
DA:174,5
DA:175,5
LF:2
LH:2
end_of_record
SF:/u/sw/toolchains/gcc-glibc/11.2.0/prefix/include/c++/11.2.0/bits/stl_iterator_base_funcs.h
FN:98,_ZSt10__distanceIPKcENSt15iterator_traitsIT_E15difference_typeES3_S3_St26random_access_iterator_tag
FNDA:5,_ZSt10__distanceIPKcENSt15iterator_traitsIT_E15difference_typeES3_S3_St26random_access_iterator_tag
FN:138,_ZSt8distanceIPKcENSt15iterator_traitsIT_E15difference_typeES3_S3_
FNDA:5,_ZSt8distanceIPKcENSt15iterator_traitsIT_E15difference_typeES3_S3_
FNF:2
FNH:2
DA:98,5
DA:104,5
DA:138,5
DA:141,5
DA:142,10
LF:5
LH:5
end_of_record
SF:/u/sw/toolchains/gcc-glibc/11.2.0/prefix/include/c++/11.2.0/ext/type_traits.h
FN:152,_ZN9__gnu_cxx17__is_null_pointerIKcEEbPT_
FNDA:5,_ZN9__gnu_cxx17__is_null_pointerIKcEEbPT_
FNF:1
FNH:1
DA:152,5
DA:153,5
LF:2
LH:2
end_of_record
SF:/u/sw/toolchains/gcc-glibc/11.2.0/prefix/include/c++/11.2.0/bits/move.h
FN:49,_ZSt11__addressofI7Struct2EPT_RS1_
FNDA:1,_ZSt11__addressofI7Struct2EPT_RS1_
FN:49,_ZSt11__addressofI12Struct1Pack4EPT_RS1_
FNDA:1,_ZSt11__addressofI12Struct1Pack4EPT_RS1_
FN:49,_ZSt11__addressofI12Struct1Pack2EPT_RS1_
FNDA:1,_ZSt11__addressofI12Struct1Pack2EPT_RS1_
FN:49,_ZSt11__addressofI12Struct1Pack1EPT_RS1_
FNDA:1,_ZSt11__addressofI12Struct1Pack1EPT_RS1_
FN:49,_ZSt11__addressofI7Struct1EPT_RS1_
FNDA:1,_ZSt11__addressofI7Struct1EPT_RS1_
FNF:5
FNH:5
DA:49,1
DA:50,1
DA:49,1
DA:50,1
DA:49,1
DA:50,1
DA:49,1
DA:50,1
DA:49,1
DA:50,1
LF:10
LH:10
end_of_record
SF:/u/sw/toolchains/gcc-glibc/11.2.0/prefix/include/c++/11.2.0/bits/basic_string.tcc
FN:206,_ZNSt7__cxx1112basic_stringIcSt11char_traitsIcESaIcEE12_M_constructIPKcEEvT_S8_St20forward_iterator_tag
FNDA:5,_ZNSt7__cxx1112basic_stringIcSt11char_traitsIcESaIcEE12_M_constructIPKcEEvT_S8_St20forward_iterator_tag
FNF:1
FNH:1
DA:206,5
DA:211,5
DA:212,0
DA:215,5
DA:217,5
DA:219,0
DA:220,0
DA:225,5
DA:226,0
DA:228,0
DA:229,0
DA:232,5
DA:233,5
LF:13
LH:7
end_of_record
SF:/u/sw/toolchains/gcc-glibc/11.2.0/prefix/include/c++/11.2.0/bits/stl_construct.h
FN:108,_ZSt10_ConstructI7Struct2JEEvPT_DpOT0_
FNDA:1,_ZSt10_ConstructI7Struct2JEEvPT_DpOT0_
FN:108,_ZSt10_ConstructI12Struct1Pack4JEEvPT_DpOT0_
FNDA:1,_ZSt10_ConstructI12Struct1Pack4JEEvPT_DpOT0_
FN:108,_ZSt10_ConstructI12Struct1Pack2JEEvPT_DpOT0_
FNDA:1,_ZSt10_ConstructI12Struct1Pack2JEEvPT_DpOT0_
FN:108,_ZSt10_ConstructI12Struct1Pack1JEEvPT_DpOT0_
FNDA:1,_ZSt10_ConstructI12Struct1Pack1JEEvPT_DpOT0_
FN:108,_ZSt10_ConstructI7Struct1JEEvPT_DpOT0_
FNDA:1,_ZSt10_ConstructI7Struct1JEEvPT_DpOT0_
FN:161,_ZNSt12_Destroy_auxILb1EE9__destroyIP7Struct2EEvT_S4_
FNDA:1,_ZNSt12_Destroy_auxILb1EE9__destroyIP7Struct2EEvT_S4_
FN:161,_ZNSt12_Destroy_auxILb1EE9__destroyIP12Struct1Pack4EEvT_S4_
FNDA:1,_ZNSt12_Destroy_auxILb1EE9__destroyIP12Struct1Pack4EEvT_S4_
FN:161,_ZNSt12_Destroy_auxILb1EE9__destroyIP12Struct1Pack2EEvT_S4_
FNDA:1,_ZNSt12_Destroy_auxILb1EE9__destroyIP12Struct1Pack2EEvT_S4_
FN:161,_ZNSt12_Destroy_auxILb1EE9__destroyIP12Struct1Pack1EEvT_S4_
FNDA:1,_ZNSt12_Destroy_auxILb1EE9__destroyIP12Struct1Pack1EEvT_S4_
FN:161,_ZNSt12_Destroy_auxILb1EE9__destroyIP7Struct1EEvT_S4_
FNDA:1,_ZNSt12_Destroy_auxILb1EE9__destroyIP7Struct1EEvT_S4_
FN:171,_ZSt8_DestroyIP7Struct2EvT_S2_
FNDA:1,_ZSt8_DestroyIP7Struct2EvT_S2_
FN:171,_ZSt8_DestroyIP12Struct1Pack4EvT_S2_
FNDA:1,_ZSt8_DestroyIP12Struct1Pack4EvT_S2_
FN:171,_ZSt8_DestroyIP12Struct1Pack2EvT_S2_
FNDA:1,_ZSt8_DestroyIP12Struct1Pack2EvT_S2_
FN:171,_ZSt8_DestroyIP12Struct1Pack1EvT_S2_
FNDA:1,_ZSt8_DestroyIP12Struct1Pack1EvT_S2_
FN:171,_ZSt8_DestroyIP7Struct1EvT_S2_
FNDA:1,_ZSt8_DestroyIP7Struct1EvT_S2_
FNF:15
FNH:15
DA:108,1
DA:109,1
DA:108,1
DA:109,1
DA:108,1
DA:109,1
DA:108,1
DA:109,1
DA:108,1
DA:109,1
DA:161,1
DA:161,1
DA:161,1
DA:161,1
DA:161,1
DA:171,1
DA:185,1
DA:186,1
DA:171,1
DA:185,1
DA:186,1
DA:171,1
DA:185,1
DA:186,1
DA:171,1
DA:185,1
DA:186,1
DA:171,1
DA:185,1
DA:186,1
LF:30
LH:30
end_of_record
SF:/u/sw/toolchains/gcc-glibc/11.2.0/prefix/include/c++/11.2.0/iostream
LF:0
LH:0
end_of_record
SF:/u/sw/toolchains/gcc-glibc/11.2.0/prefix/include/c++/11.2.0/bits/stl_vector.h
FN:97,_ZNSt12_Vector_baseI7Struct2SaIS0_EE17_Vector_impl_dataC2Ev
FNDA:1,_ZNSt12_Vector_baseI7Struct2SaIS0_EE17_Vector_impl_dataC2Ev
FN:97,_ZNSt12_Vector_baseI12Struct1Pack4SaIS0_EE17_Vector_impl_dataC2Ev
FNDA:1,_ZNSt12_Vector_baseI12Struct1Pack4SaIS0_EE17_Vector_impl_dataC2Ev
FN:97,_ZNSt12_Vector_baseI12Struct1Pack2SaIS0_EE17_Vector_impl_dataC2Ev
FNDA:1,_ZNSt12_Vector_baseI12Struct1Pack2SaIS0_EE17_Vector_impl_dataC2Ev
FN:97,_ZNSt12_Vector_baseI12Struct1Pack1SaIS0_EE17_Vector_impl_dataC2Ev
FNDA:1,_ZNSt12_Vector_baseI12Struct1Pack1SaIS0_EE17_Vector_impl_dataC2Ev
FN:97,_ZNSt12_Vector_baseI7Struct1SaIS0_EE17_Vector_impl_dataC2Ev
FNDA:1,_ZNSt12_Vector_baseI7Struct1SaIS0_EE17_Vector_impl_dataC2Ev
FN:136,_ZNSt12_Vector_baseI12Struct1Pack1SaIS0_EE12_Vector_implC2ERKS1_
FNDA:1,_ZNSt12_Vector_baseI12Struct1Pack1SaIS0_EE12_Vector_implC2ERKS1_
FN:136,_ZNSt12_Vector_baseI7Struct1SaIS0_EE12_Vector_implC2ERKS1_
FNDA:1,_ZNSt12_Vector_baseI7Struct1SaIS0_EE12_Vector_implC2ERKS1_
FN:136,_ZNSt12_Vector_baseI12Struct1Pack2SaIS0_EE12_Vector_implC2ERKS1_
FNDA:1,_ZNSt12_Vector_baseI12Struct1Pack2SaIS0_EE12_Vector_implC2ERKS1_
FN:136,_ZNSt12_Vector_baseI12Struct1Pack4SaIS0_EE12_Vector_implC2ERKS1_
FNDA:1,_ZNSt12_Vector_baseI12Struct1Pack4SaIS0_EE12_Vector_implC2ERKS1_
FN:136,_ZNSt12_Vector_baseI7Struct2SaIS0_EE12_Vector_implC2ERKS1_
FNDA:1,_ZNSt12_Vector_baseI7Struct2SaIS0_EE12_Vector_implC2ERKS1_
FN:276,_ZNSt12_Vector_baseI12Struct1Pack1SaIS0_EE19_M_get_Tp_allocatorEv
FNDA:2,_ZNSt12_Vector_baseI12Struct1Pack1SaIS0_EE19_M_get_Tp_allocatorEv
FN:276,_ZNSt12_Vector_baseI12Struct1Pack2SaIS0_EE19_M_get_Tp_allocatorEv
FNDA:2,_ZNSt12_Vector_baseI12Struct1Pack2SaIS0_EE19_M_get_Tp_allocatorEv
FN:276,_ZNSt12_Vector_baseI7Struct1SaIS0_EE19_M_get_Tp_allocatorEv
FNDA:2,_ZNSt12_Vector_baseI7Struct1SaIS0_EE19_M_get_Tp_allocatorEv
FN:276,_ZNSt12_Vector_baseI12Struct1Pack4SaIS0_EE19_M_get_Tp_allocatorEv
FNDA:2,_ZNSt12_Vector_baseI12Struct1Pack4SaIS0_EE19_M_get_Tp_allocatorEv
FN:276,_ZNSt12_Vector_baseI7Struct2SaIS0_EE19_M_get_Tp_allocatorEv
FNDA:2,_ZNSt12_Vector_baseI7Struct2SaIS0_EE19_M_get_Tp_allocatorEv
FN:303,_ZNSt12_Vector_baseI12Struct1Pack1SaIS0_EEC2EmRKS1_
FNDA:1,_ZNSt12_Vector_baseI12Struct1Pack1SaIS0_EEC2EmRKS1_
FN:303,_ZNSt12_Vector_baseI12Struct1Pack2SaIS0_EEC2EmRKS1_
FNDA:1,_ZNSt12_Vector_baseI12Struct1Pack2SaIS0_EEC2EmRKS1_
FN:303,_ZNSt12_Vector_baseI12Struct1Pack4SaIS0_EEC2EmRKS1_
FNDA:1,_ZNSt12_Vector_baseI12Struct1Pack4SaIS0_EEC2EmRKS1_
FN:303,_ZNSt12_Vector_baseI7Struct2SaIS0_EEC2EmRKS1_
FNDA:1,_ZNSt12_Vector_baseI7Struct2SaIS0_EEC2EmRKS1_
FN:303,_ZNSt12_Vector_baseI7Struct1SaIS0_EEC2EmRKS1_
FNDA:1,_ZNSt12_Vector_baseI7Struct1SaIS0_EEC2EmRKS1_
FN:333,_ZNSt12_Vector_baseI12Struct1Pack1SaIS0_EED2Ev
FNDA:1,_ZNSt12_Vector_baseI12Struct1Pack1SaIS0_EED2Ev
FN:333,_ZNSt12_Vector_baseI12Struct1Pack4SaIS0_EED2Ev
FNDA:1,_ZNSt12_Vector_baseI12Struct1Pack4SaIS0_EED2Ev
FN:333,_ZNSt12_Vector_baseI7Struct1SaIS0_EED2Ev
FNDA:1,_ZNSt12_Vector_baseI7Struct1SaIS0_EED2Ev
FN:333,_ZNSt12_Vector_baseI7Struct2SaIS0_EED2Ev
FNDA:1,_ZNSt12_Vector_baseI7Struct2SaIS0_EED2Ev
FN:333,_ZNSt12_Vector_baseI12Struct1Pack2SaIS0_EED2Ev
FNDA:1,_ZNSt12_Vector_baseI12Struct1Pack2SaIS0_EED2Ev
FN:343,_ZNSt12_Vector_baseI7Struct2SaIS0_EE11_M_allocateEm
FNDA:1,_ZNSt12_Vector_baseI7Struct2SaIS0_EE11_M_allocateEm
FN:343,_ZNSt12_Vector_baseI7Struct1SaIS0_EE11_M_allocateEm
FNDA:1,_ZNSt12_Vector_baseI7Struct1SaIS0_EE11_M_allocateEm
FN:343,_ZNSt12_Vector_baseI12Struct1Pack1SaIS0_EE11_M_allocateEm
FNDA:1,_ZNSt12_Vector_baseI12Struct1Pack1SaIS0_EE11_M_allocateEm
FN:343,_ZNSt12_Vector_baseI12Struct1Pack2SaIS0_EE11_M_allocateEm
FNDA:1,_ZNSt12_Vector_baseI12Struct1Pack2SaIS0_EE11_M_allocateEm
FN:343,_ZNSt12_Vector_baseI12Struct1Pack4SaIS0_EE11_M_allocateEm
FNDA:1,_ZNSt12_Vector_baseI12Struct1Pack4SaIS0_EE11_M_allocateEm
FN:350,_ZNSt12_Vector_baseI7Struct1SaIS0_EE13_M_deallocateEPS0_m
FNDA:1,_ZNSt12_Vector_baseI7Struct1SaIS0_EE13_M_deallocateEPS0_m
FN:350,_ZNSt12_Vector_baseI7Struct2SaIS0_EE13_M_deallocateEPS0_m
FNDA:1,_ZNSt12_Vector_baseI7Struct2SaIS0_EE13_M_deallocateEPS0_m
FN:350,_ZNSt12_Vector_baseI12Struct1Pack4SaIS0_EE13_M_deallocateEPS0_m
FNDA:1,_ZNSt12_Vector_baseI12Struct1Pack4SaIS0_EE13_M_deallocateEPS0_m
FN:350,_ZNSt12_Vector_baseI12Struct1Pack2SaIS0_EE13_M_deallocateEPS0_m
FNDA:1,_ZNSt12_Vector_baseI12Struct1Pack2SaIS0_EE13_M_deallocateEPS0_m
FN:350,_ZNSt12_Vector_baseI12Struct1Pack1SaIS0_EE13_M_deallocateEPS0_m
FNDA:1,_ZNSt12_Vector_baseI12Struct1Pack1SaIS0_EE13_M_deallocateEPS0_m
FN:359,_ZNSt12_Vector_baseI12Struct1Pack2SaIS0_EE17_M_create_storageEm
FNDA:1,_ZNSt12_Vector_baseI12Struct1Pack2SaIS0_EE17_M_create_storageEm
FN:359,_ZNSt12_Vector_baseI12Struct1Pack4SaIS0_EE17_M_create_storageEm
FNDA:1,_ZNSt12_Vector_baseI12Struct1Pack4SaIS0_EE17_M_create_storageEm
FN:359,_ZNSt12_Vector_baseI12Struct1Pack1SaIS0_EE17_M_create_storageEm
FNDA:1,_ZNSt12_Vector_baseI12Struct1Pack1SaIS0_EE17_M_create_storageEm
FN:359,_ZNSt12_Vector_baseI7Struct1SaIS0_EE17_M_create_storageEm
FNDA:1,_ZNSt12_Vector_baseI7Struct1SaIS0_EE17_M_create_storageEm
FN:359,_ZNSt12_Vector_baseI7Struct2SaIS0_EE17_M_create_storageEm
FNDA:1,_ZNSt12_Vector_baseI7Struct2SaIS0_EE17_M_create_storageEm
FN:510,_ZNSt6vectorI7Struct2SaIS0_EEC2EmRKS1_
FNDA:1,_ZNSt6vectorI7Struct2SaIS0_EEC2EmRKS1_
FN:510,_ZNSt6vectorI12Struct1Pack4SaIS0_EEC2EmRKS1_
FNDA:1,_ZNSt6vectorI12Struct1Pack4SaIS0_EEC2EmRKS1_
FN:510,_ZNSt6vectorI12Struct1Pack2SaIS0_EEC2EmRKS1_
FNDA:1,_ZNSt6vectorI12Struct1Pack2SaIS0_EEC2EmRKS1_
FN:510,_ZNSt6vectorI12Struct1Pack1SaIS0_EEC2EmRKS1_
FNDA:1,_ZNSt6vectorI12Struct1Pack1SaIS0_EEC2EmRKS1_
FN:510,_ZNSt6vectorI7Struct1SaIS0_EEC2EmRKS1_
FNDA:1,_ZNSt6vectorI7Struct1SaIS0_EEC2EmRKS1_
FN:678,_ZNSt6vectorI7Struct1SaIS0_EED2Ev
FNDA:1,_ZNSt6vectorI7Struct1SaIS0_EED2Ev
FN:678,_ZNSt6vectorI12Struct1Pack2SaIS0_EED2Ev
FNDA:1,_ZNSt6vectorI12Struct1Pack2SaIS0_EED2Ev
FN:678,_ZNSt6vectorI12Struct1Pack4SaIS0_EED2Ev
FNDA:1,_ZNSt6vectorI12Struct1Pack4SaIS0_EED2Ev
FN:678,_ZNSt6vectorI7Struct2SaIS0_EED2Ev
FNDA:1,_ZNSt6vectorI7Struct2SaIS0_EED2Ev
FN:678,_ZNSt6vectorI12Struct1Pack1SaIS0_EED2Ev
FNDA:1,_ZNSt6vectorI12Struct1Pack1SaIS0_EED2Ev
FN:811,_ZNSt6vectorI7Struct1SaIS0_EE5beginEv
FNDA:2,_ZNSt6vectorI7Struct1SaIS0_EE5beginEv
FN:811,_ZNSt6vectorI12Struct1Pack2SaIS0_EE5beginEv
FNDA:2,_ZNSt6vectorI12Struct1Pack2SaIS0_EE5beginEv
FN:811,_ZNSt6vectorI12Struct1Pack1SaIS0_EE5beginEv
FNDA:2,_ZNSt6vectorI12Struct1Pack1SaIS0_EE5beginEv
FN:811,_ZNSt6vectorI12Struct1Pack4SaIS0_EE5beginEv
FNDA:2,_ZNSt6vectorI12Struct1Pack4SaIS0_EE5beginEv
FN:811,_ZNSt6vectorI7Struct2SaIS0_EE5beginEv
FNDA:2,_ZNSt6vectorI7Struct2SaIS0_EE5beginEv
FN:829,_ZNSt6vectorI12Struct1Pack4SaIS0_EE3endEv
FNDA:3,_ZNSt6vectorI12Struct1Pack4SaIS0_EE3endEv
FN:829,_ZNSt6vectorI12Struct1Pack2SaIS0_EE3endEv
FNDA:3,_ZNSt6vectorI12Struct1Pack2SaIS0_EE3endEv
FN:829,_ZNSt6vectorI7Struct1SaIS0_EE3endEv
FNDA:3,_ZNSt6vectorI7Struct1SaIS0_EE3endEv
FN:829,_ZNSt6vectorI12Struct1Pack1SaIS0_EE3endEv
FNDA:3,_ZNSt6vectorI12Struct1Pack1SaIS0_EE3endEv
FN:829,_ZNSt6vectorI7Struct2SaIS0_EE3endEv
FNDA:3,_ZNSt6vectorI7Struct2SaIS0_EE3endEv
FN:1043,_ZNSt6vectorI7Struct2SaIS0_EEixEm
FNDA:1,_ZNSt6vectorI7Struct2SaIS0_EEixEm
FN:1043,_ZNSt6vectorI12Struct1Pack4SaIS0_EEixEm
FNDA:1,_ZNSt6vectorI12Struct1Pack4SaIS0_EEixEm
FN:1043,_ZNSt6vectorI7Struct1SaIS0_EEixEm
FNDA:1,_ZNSt6vectorI7Struct1SaIS0_EEixEm
FN:1043,_ZNSt6vectorI12Struct1Pack1SaIS0_EEixEm
FNDA:1,_ZNSt6vectorI12Struct1Pack1SaIS0_EEixEm
FN:1043,_ZNSt6vectorI12Struct1Pack2SaIS0_EEixEm
FNDA:1,_ZNSt6vectorI12Struct1Pack2SaIS0_EEixEm
FN:1143,_ZNSt6vectorI7Struct1SaIS0_EE4backEv
FNDA:1,_ZNSt6vectorI7Struct1SaIS0_EE4backEv
FN:1143,_ZNSt6vectorI7Struct2SaIS0_EE4backEv
FNDA:1,_ZNSt6vectorI7Struct2SaIS0_EE4backEv
FN:1143,_ZNSt6vectorI12Struct1Pack4SaIS0_EE4backEv
FNDA:1,_ZNSt6vectorI12Struct1Pack4SaIS0_EE4backEv
FN:1143,_ZNSt6vectorI12Struct1Pack1SaIS0_EE4backEv
FNDA:1,_ZNSt6vectorI12Struct1Pack1SaIS0_EE4backEv
FN:1143,_ZNSt6vectorI12Struct1Pack2SaIS0_EE4backEv
FNDA:1,_ZNSt6vectorI12Struct1Pack2SaIS0_EE4backEv
FN:1603,_ZNSt6vectorI7Struct2SaIS0_EE21_M_default_initializeEm
FNDA:1,_ZNSt6vectorI7Struct2SaIS0_EE21_M_default_initializeEm
FN:1603,_ZNSt6vectorI12Struct1Pack1SaIS0_EE21_M_default_initializeEm
FNDA:1,_ZNSt6vectorI12Struct1Pack1SaIS0_EE21_M_default_initializeEm
FN:1603,_ZNSt6vectorI12Struct1Pack4SaIS0_EE21_M_default_initializeEm
FNDA:1,_ZNSt6vectorI12Struct1Pack4SaIS0_EE21_M_default_initializeEm
FN:1603,_ZNSt6vectorI7Struct1SaIS0_EE21_M_default_initializeEm
FNDA:1,_ZNSt6vectorI7Struct1SaIS0_EE21_M_default_initializeEm
FN:1603,_ZNSt6vectorI12Struct1Pack2SaIS0_EE21_M_default_initializeEm
FNDA:1,_ZNSt6vectorI12Struct1Pack2SaIS0_EE21_M_default_initializeEm
FN:1767,_ZNSt6vectorI7Struct2SaIS0_EE17_S_check_init_lenEmRKS1_
FNDA:1,_ZNSt6vectorI7Struct2SaIS0_EE17_S_check_init_lenEmRKS1_
FN:1767,_ZNSt6vectorI7Struct1SaIS0_EE17_S_check_init_lenEmRKS1_
FNDA:1,_ZNSt6vectorI7Struct1SaIS0_EE17_S_check_init_lenEmRKS1_
FN:1767,_ZNSt6vectorI12Struct1Pack4SaIS0_EE17_S_check_init_lenEmRKS1_
FNDA:1,_ZNSt6vectorI12Struct1Pack4SaIS0_EE17_S_check_init_lenEmRKS1_
FN:1767,_ZNSt6vectorI12Struct1Pack1SaIS0_EE17_S_check_init_lenEmRKS1_
FNDA:1,_ZNSt6vectorI12Struct1Pack1SaIS0_EE17_S_check_init_lenEmRKS1_
FN:1767,_ZNSt6vectorI12Struct1Pack2SaIS0_EE17_S_check_init_lenEmRKS1_
FNDA:1,_ZNSt6vectorI12Struct1Pack2SaIS0_EE17_S_check_init_lenEmRKS1_
FN:1776,_ZNSt6vectorI12Struct1Pack2SaIS0_EE11_S_max_sizeERKS1_
FNDA:1,_ZNSt6vectorI12Struct1Pack2SaIS0_EE11_S_max_sizeERKS1_
FN:1776,_ZNSt6vectorI12Struct1Pack4SaIS0_EE11_S_max_sizeERKS1_
FNDA:1,_ZNSt6vectorI12Struct1Pack4SaIS0_EE11_S_max_sizeERKS1_
FN:1776,_ZNSt6vectorI7Struct1SaIS0_EE11_S_max_sizeERKS1_
FNDA:1,_ZNSt6vectorI7Struct1SaIS0_EE11_S_max_sizeERKS1_
FN:1776,_ZNSt6vectorI7Struct2SaIS0_EE11_S_max_sizeERKS1_
FNDA:1,_ZNSt6vectorI7Struct2SaIS0_EE11_S_max_sizeERKS1_
FN:1776,_ZNSt6vectorI12Struct1Pack1SaIS0_EE11_S_max_sizeERKS1_
FNDA:1,_ZNSt6vectorI12Struct1Pack1SaIS0_EE11_S_max_sizeERKS1_
FNF:85
FNH:85
DA:97,1
DA:98,1
DA:99,1
DA:97,1
DA:98,1
DA:99,1
DA:97,1
DA:98,1
DA:99,1
DA:97,1
DA:98,1
DA:99,1
DA:97,1
DA:98,1
DA:99,1
DA:136,1
DA:137,1
DA:138,1
DA:136,1
DA:137,1
DA:138,1
DA:136,1
DA:137,1
DA:138,1
DA:136,1
DA:137,1
DA:138,1
DA:136,1
DA:137,1
DA:138,1
DA:276,2
DA:277,2
DA:276,2
DA:277,2
DA:276,2
DA:277,2
DA:276,2
DA:277,2
DA:276,2
DA:277,2
DA:303,1
DA:304,1
DA:305,1
DA:303,1
DA:304,1
DA:305,1
DA:303,1
DA:304,1
DA:305,1
DA:303,1
DA:304,1
DA:305,1
DA:303,1
DA:304,1
DA:305,1
DA:333,1
DA:335,1
DA:336,1
DA:337,1
DA:333,1
DA:335,1
DA:336,1
DA:337,1
DA:333,1
DA:335,1
DA:336,1
DA:337,1
DA:333,1
DA:335,1
DA:336,1
DA:337,1
DA:333,1
DA:335,1
DA:336,1
DA:337,1
DA:343,1
DA:346,1
DA:343,1
DA:346,1
DA:343,1
DA:346,1
DA:343,1
DA:346,1
DA:343,1
DA:346,1
DA:350,1
DA:353,1
DA:354,1
DA:355,1
DA:350,1
DA:353,1
DA:354,1
DA:355,1
DA:350,1
DA:353,1
DA:354,1
DA:355,1
DA:350,1
DA:353,1
DA:354,1
DA:355,1
DA:350,1
DA:353,1
DA:354,1
DA:355,1
DA:359,1
DA:361,1
DA:362,1
DA:363,1
DA:364,1
DA:359,1
DA:361,1
DA:362,1
DA:363,1
DA:364,1
DA:359,1
DA:361,1
DA:362,1
DA:363,1
DA:364,1
DA:359,1
DA:361,1
DA:362,1
DA:363,1
DA:364,1
DA:359,1
DA:361,1
DA:362,1
DA:363,1
DA:364,1
DA:510,1
DA:511,1
DA:512,1
DA:510,1
DA:511,1
DA:512,1
DA:510,1
DA:511,1
DA:512,1
DA:510,1
DA:511,1
DA:512,1
DA:510,1
DA:511,1
DA:512,1
DA:678,1
DA:680,1
DA:681,1
DA:683,1
DA:678,1
DA:680,1
DA:681,1
DA:683,1
DA:678,1
DA:680,1
DA:681,1
DA:683,1
DA:678,1
DA:680,1
DA:681,1
DA:683,1
DA:678,1
DA:680,1
DA:681,1
DA:683,1
DA:811,2
DA:812,2
DA:811,2
DA:812,2
DA:811,2
DA:812,2
DA:811,2
DA:812,2
DA:811,2
DA:812,2
DA:829,3
DA:830,3
DA:829,3
DA:830,3
DA:829,3
DA:830,3
DA:829,3
DA:830,3
DA:829,3
DA:830,3
DA:1043,1
DA:1046,1
DA:1043,1
DA:1046,1
DA:1043,1
DA:1046,1
DA:1043,1
DA:1046,1
DA:1043,1
DA:1046,1
DA:1143,1
DA:1146,1
DA:1143,1
DA:1146,1
DA:1143,1
DA:1146,1
DA:1143,1
DA:1146,1
DA:1143,1
DA:1146,1
DA:1603,1
DA:1605,1
DA:1606,1
DA:1607,1
DA:1608,1
DA:1603,1
DA:1605,1
DA:1606,1
DA:1607,1
DA:1608,1
DA:1603,1
DA:1605,1
DA:1606,1
DA:1607,1
DA:1608,1
DA:1603,1
DA:1605,1
DA:1606,1
DA:1607,1
DA:1608,1
DA:1603,1
DA:1605,1
DA:1606,1
DA:1607,1
DA:1608,1
DA:1767,1
DA:1769,1
DA:1770,0
DA:1772,1
DA:1767,1
DA:1769,1
DA:1770,0
DA:1772,1
DA:1767,1
DA:1769,1
DA:1770,0
DA:1772,1
DA:1767,1
DA:1769,1
DA:1770,0
DA:1772,1
DA:1767,1
DA:1769,1
DA:1770,0
DA:1772,1
DA:1776,1
DA:1781,1
DA:1783,1
DA:1784,1
DA:1776,1
DA:1781,1
DA:1783,1
DA:1784,1
DA:1776,1
DA:1781,1
DA:1783,1
DA:1784,1
DA:1776,1
DA:1781,1
DA:1783,1
DA:1784,1
DA:1776,1
DA:1781,1
DA:1783,1
DA:1784,1
LF:270
LH:265
end_of_record
SF:/u/sw/toolchains/gcc-glibc/11.2.0/prefix/include/c++/11.2.0/bits/stl_uninitialized.h
FN:595,_ZNSt27__uninitialized_default_n_1ILb1EE18__uninit_default_nIP7Struct2mEET_S4_T0_
FNDA:1,_ZNSt27__uninitialized_default_n_1ILb1EE18__uninit_default_nIP7Struct2mEET_S4_T0_
FN:595,_ZNSt27__uninitialized_default_n_1ILb1EE18__uninit_default_nIP12Struct1Pack4mEET_S4_T0_
FNDA:1,_ZNSt27__uninitialized_default_n_1ILb1EE18__uninit_default_nIP12Struct1Pack4mEET_S4_T0_
FN:595,_ZNSt27__uninitialized_default_n_1ILb1EE18__uninit_default_nIP12Struct1Pack2mEET_S4_T0_
FNDA:1,_ZNSt27__uninitialized_default_n_1ILb1EE18__uninit_default_nIP12Struct1Pack2mEET_S4_T0_
FN:595,_ZNSt27__uninitialized_default_n_1ILb1EE18__uninit_default_nIP12Struct1Pack1mEET_S4_T0_
FNDA:1,_ZNSt27__uninitialized_default_n_1ILb1EE18__uninit_default_nIP12Struct1Pack1mEET_S4_T0_
FN:595,_ZNSt27__uninitialized_default_n_1ILb1EE18__uninit_default_nIP7Struct1mEET_S4_T0_
FNDA:1,_ZNSt27__uninitialized_default_n_1ILb1EE18__uninit_default_nIP7Struct1mEET_S4_T0_
FN:630,_ZSt25__uninitialized_default_nIP7Struct2mET_S2_T0_
FNDA:1,_ZSt25__uninitialized_default_nIP7Struct2mET_S2_T0_
FN:630,_ZSt25__uninitialized_default_nIP12Struct1Pack4mET_S2_T0_
FNDA:1,_ZSt25__uninitialized_default_nIP12Struct1Pack4mET_S2_T0_
FN:630,_ZSt25__uninitialized_default_nIP12Struct1Pack2mET_S2_T0_
FNDA:1,_ZSt25__uninitialized_default_nIP12Struct1Pack2mET_S2_T0_
FN:630,_ZSt25__uninitialized_default_nIP12Struct1Pack1mET_S2_T0_
FNDA:1,_ZSt25__uninitialized_default_nIP12Struct1Pack1mET_S2_T0_
FN:630,_ZSt25__uninitialized_default_nIP7Struct1mET_S2_T0_
FNDA:1,_ZSt25__uninitialized_default_nIP7Struct1mET_S2_T0_
FN:702,_ZSt27__uninitialized_default_n_aIP7Struct2mS0_ET_S2_T0_RSaIT1_E
FNDA:1,_ZSt27__uninitialized_default_n_aIP7Struct2mS0_ET_S2_T0_RSaIT1_E
FN:702,_ZSt27__uninitialized_default_n_aIP12Struct1Pack4mS0_ET_S2_T0_RSaIT1_E
FNDA:1,_ZSt27__uninitialized_default_n_aIP12Struct1Pack4mS0_ET_S2_T0_RSaIT1_E
FN:702,_ZSt27__uninitialized_default_n_aIP12Struct1Pack2mS0_ET_S2_T0_RSaIT1_E
FNDA:1,_ZSt27__uninitialized_default_n_aIP12Struct1Pack2mS0_ET_S2_T0_RSaIT1_E
FN:702,_ZSt27__uninitialized_default_n_aIP12Struct1Pack1mS0_ET_S2_T0_RSaIT1_E
FNDA:1,_ZSt27__uninitialized_default_n_aIP12Struct1Pack1mS0_ET_S2_T0_RSaIT1_E
FN:702,_ZSt27__uninitialized_default_n_aIP7Struct1mS0_ET_S2_T0_RSaIT1_E
FNDA:1,_ZSt27__uninitialized_default_n_aIP7Struct1mS0_ET_S2_T0_RSaIT1_E
FNF:15
FNH:15
DA:595,1
DA:597,1
DA:600,1
DA:601,1
DA:602,1
DA:603,1
DA:605,1
DA:595,1
DA:597,1
DA:600,1
DA:601,1
DA:602,1
DA:603,1
DA:605,1
DA:595,1
DA:597,1
DA:600,1
DA:601,1
DA:602,1
DA:603,1
DA:605,1
DA:595,1
DA:597,1
DA:600,1
DA:601,1
DA:602,1
DA:603,1
DA:605,1
DA:595,1
DA:597,1
DA:600,1
DA:601,1
DA:602,1
DA:603,1
DA:605,1
DA:630,1
DA:635,1
DA:640,1
DA:630,1
DA:635,1
DA:640,1
DA:630,1
DA:635,1
DA:640,1
DA:630,1
DA:635,1
DA:640,1
DA:630,1
DA:635,1
DA:640,1
DA:702,1
DA:704,1
DA:702,1
DA:704,1
DA:702,1
DA:704,1
DA:702,1
DA:704,1
DA:702,1
DA:704,1
LF:60
LH:60
end_of_record
